target datalayout = "e-m:e-p270:32:32-p271:32:32-p272:64:64-i64:64-i128:128-f80:128-n8:16:32:64-S128"
target triple = "x86_64-pc-linux-gnu"

%struct.AVFormatContext = type { ptr, ptr, ptr, ptr, ptr, i32, i32, ptr, i32, ptr, i32, ptr, ptr, i64, i64, i64, i32, i32, i32, i64, i64, ptr, i32, i32, ptr, i32, i32, i32, i32, ptr, i64, i32, i32, %struct.AVIOInterruptCB, i32, i32, i32, i32, i64, i32, i32, i32, i32, i32, i32, i32, i32, i32, i32, i32, i32, i64, i32, i32, i32, i32, i32, ptr, ptr, ptr, ptr, i32, ptr, ptr, ptr, ptr, i32, ptr, ptr, i64, ptr, ptr, ptr, i64 }
%struct.AVIOInterruptCB = type { ptr, ptr }
%struct.Hnm4DemuxContext = type { i32, i32, i32 }
%struct.AVStream = type { ptr, i32, i32, ptr, ptr, %struct.AVRational, i64, i64, i64, i32, i32, %struct.AVRational, ptr, %struct.AVRational, %struct.AVPacket, i32, %struct.AVRational, i32 }
%struct.AVPacket = type { ptr, i64, i64, ptr, i32, i32, i32, ptr, i32, i64, i64, ptr, ptr, %struct.AVRational }
%struct.AVRational = type { i32, i32 }
%struct.AVCodecParameters = type { i32, i32, i32, ptr, i32, ptr, i32, i32, i64, i32, i32, i32, i32, i32, i32, %struct.AVRational, %struct.AVRational, i32, i32, i32, i32, i32, i32, i32, %struct.AVChannelLayout, i32, i32, i32, i32, i32, i32 }
%struct.AVChannelLayout = type { i32, i32, %union.anon, ptr }
%union.anon = type { i64 }

@.str.2 = private unnamed_addr constant [27 x i8] c"invalid resolution: %ux%u\0A\00", align 1

; Function Attrs: nounwind uwtable
define internal i32 @hnm_read_header(ptr noundef %0) #0 {
  %2 = alloca i32, align 4
  %3 = alloca ptr, align 8
  %4 = alloca ptr, align 8
  %5 = alloca ptr, align 8
  %6 = alloca i32, align 4
  %7 = alloca i32, align 4
  %8 = alloca ptr, align 8
  %9 = alloca i32, align 4
  %10 = alloca i32, align 4
  store ptr %0, ptr %3, align 8, !tbaa !15
  call void @llvm.lifetime.start.p0(i64 8, ptr %4) #4
  %11 = load ptr, ptr %3, align 8, !tbaa !15
  %12 = getelementptr inbounds nuw %struct.AVFormatContext, ptr %11, i32 0, i32 3
  %13 = load ptr, ptr %12, align 8, !tbaa !17
  store ptr %13, ptr %4, align 8, !tbaa !32
  call void @llvm.lifetime.start.p0(i64 8, ptr %5) #4
  %14 = load ptr, ptr %3, align 8, !tbaa !15
  %15 = getelementptr inbounds nuw %struct.AVFormatContext, ptr %14, i32 0, i32 4
  %16 = load ptr, ptr %15, align 8, !tbaa !34
  store ptr %16, ptr %5, align 8, !tbaa !35
  call void @llvm.lifetime.start.p0(i64 4, ptr %6) #4
  call void @llvm.lifetime.start.p0(i64 4, ptr %7) #4
  call void @llvm.lifetime.start.p0(i64 8, ptr %8) #4
  call void @llvm.lifetime.start.p0(i64 4, ptr %9) #4
  %17 = load ptr, ptr %5, align 8, !tbaa !35
  %18 = call i64 @avio_skip(ptr noundef %17, i64 noundef 8)
  %19 = load ptr, ptr %5, align 8, !tbaa !35
  %20 = call i32 @avio_rl16(ptr noundef %19)
  store i32 %20, ptr %6, align 4, !tbaa !36
  %21 = load ptr, ptr %5, align 8, !tbaa !35
  %22 = call i32 @avio_rl16(ptr noundef %21)
  store i32 %22, ptr %7, align 4, !tbaa !36
  %23 = load ptr, ptr %5, align 8, !tbaa !35
  %24 = call i32 @avio_rl32(ptr noundef %23)
  %25 = load ptr, ptr %5, align 8, !tbaa !35
  %26 = call i32 @avio_rl32(ptr noundef %25)
  %27 = load ptr, ptr %4, align 8, !tbaa !32
  %28 = getelementptr inbounds nuw %struct.Hnm4DemuxContext, ptr %27, i32 0, i32 0
  store i32 %26, ptr %28, align 4, !tbaa !37
  %29 = load ptr, ptr %5, align 8, !tbaa !35
  %30 = call i64 @avio_skip(ptr noundef %29, i64 noundef 44)
  %31 = load i32, ptr %6, align 4, !tbaa !36
  %32 = icmp ult i32 %31, 256
  br i1 %32, label %42, label %33

33:                                               ; preds = %1
  %34 = load i32, ptr %6, align 4, !tbaa !36
  %35 = icmp ugt i32 %34, 640
  br i1 %35, label %42, label %36

36:                                               ; preds = %33
  %37 = load i32, ptr %7, align 4, !tbaa !36
  %38 = icmp ult i32 %37, 150
  br i1 %38, label %42, label %39

39:                                               ; preds = %36
  %40 = load i32, ptr %7, align 4, !tbaa !36
  %41 = icmp ugt i32 %40, 480
  br i1 %41, label %42, label %46

42:                                               ; preds = %39, %36, %33, %1
  %43 = load ptr, ptr %3, align 8, !tbaa !15
  %44 = load i32, ptr %6, align 4, !tbaa !36
  %45 = load i32, ptr %7, align 4, !tbaa !36
  call void (ptr, i32, ptr, ...) @av_log(ptr noundef %43, i32 noundef 16, ptr noundef @.str.2, i32 noundef %44, i32 noundef %45)
  store i32 -1094995529, ptr %2, align 4
  store i32 1, ptr %10, align 4
  br label %95

46:                                               ; preds = %39
  %47 = load ptr, ptr %3, align 8, !tbaa !15
  %48 = call ptr @avformat_new_stream(ptr noundef %47, ptr noundef null)
  store ptr %48, ptr %8, align 8, !tbaa !39
  %49 = icmp ne ptr %48, null
  br i1 %49, label %51, label %50

50:                                               ; preds = %46
  store i32 -12, ptr %2, align 4
  store i32 1, ptr %10, align 4
  br label %95

51:                                               ; preds = %46
  %52 = load ptr, ptr %8, align 8, !tbaa !39
  %53 = getelementptr inbounds nuw %struct.AVStream, ptr %52, i32 0, i32 3
  %54 = load ptr, ptr %53, align 8, !tbaa !41
  %55 = getelementptr inbounds nuw %struct.AVCodecParameters, ptr %54, i32 0, i32 0
  store i32 0, ptr %55, align 8, !tbaa !48
  %56 = load ptr, ptr %8, align 8, !tbaa !39
  %57 = getelementptr inbounds nuw %struct.AVStream, ptr %56, i32 0, i32 3
  %58 = load ptr, ptr %57, align 8, !tbaa !41
  %59 = getelementptr inbounds nuw %struct.AVCodecParameters, ptr %58, i32 0, i32 1
  store i32 172, ptr %59, align 4, !tbaa !51
  %60 = load ptr, ptr %8, align 8, !tbaa !39
  %61 = getelementptr inbounds nuw %struct.AVStream, ptr %60, i32 0, i32 3
  %62 = load ptr, ptr %61, align 8, !tbaa !41
  %63 = getelementptr inbounds nuw %struct.AVCodecParameters, ptr %62, i32 0, i32 2
  store i32 0, ptr %63, align 8, !tbaa !52
  %64 = load i32, ptr %6, align 4, !tbaa !36
  %65 = load ptr, ptr %8, align 8, !tbaa !39
  %66 = getelementptr inbounds nuw %struct.AVStream, ptr %65, i32 0, i32 3
  %67 = load ptr, ptr %66, align 8, !tbaa !41
  %68 = getelementptr inbounds nuw %struct.AVCodecParameters, ptr %67, i32 0, i32 13
  store i32 %64, ptr %68, align 8, !tbaa !53
  %69 = load i32, ptr %7, align 4, !tbaa !36
  %70 = load ptr, ptr %8, align 8, !tbaa !39
  %71 = getelementptr inbounds nuw %struct.AVStream, ptr %70, i32 0, i32 3
  %72 = load ptr, ptr %71, align 8, !tbaa !41
  %73 = getelementptr inbounds nuw %struct.AVCodecParameters, ptr %72, i32 0, i32 14
  store i32 %69, ptr %73, align 4, !tbaa !54
  %74 = load ptr, ptr %8, align 8, !tbaa !39
  %75 = getelementptr inbounds nuw %struct.AVStream, ptr %74, i32 0, i32 3
  %76 = load ptr, ptr %75, align 8, !tbaa !41
  %77 = call i32 @ff_alloc_extradata(ptr noundef %76, i32 noundef 1)
  store i32 %77, ptr %9, align 4, !tbaa !36
  %78 = icmp slt i32 %77, 0
  br i1 %78, label %79, label %81

79:                                               ; preds = %51
  %80 = load i32, ptr %9, align 4, !tbaa !36
  store i32 %80, ptr %2, align 4
  store i32 1, ptr %10, align 4
  br label %95

81:                                               ; preds = %51
  %82 = load i32, ptr %6, align 4, !tbaa !36
  %83 = icmp eq i32 %82, 640
  %84 = select i1 %83, i32 74, i32 64
  %85 = trunc i32 %84 to i8
  %86 = load ptr, ptr %8, align 8, !tbaa !39
  %87 = getelementptr inbounds nuw %struct.AVStream, ptr %86, i32 0, i32 3
  %88 = load ptr, ptr %87, align 8, !tbaa !41
  %89 = getelementptr inbounds nuw %struct.AVCodecParameters, ptr %88, i32 0, i32 3
  %90 = load ptr, ptr %89, align 8, !tbaa !55
  %91 = getelementptr inbounds i8, ptr %90, i64 0
  store i8 %85, ptr %91, align 1, !tbaa !14
  %92 = load ptr, ptr %8, align 8, !tbaa !39
  %93 = getelementptr inbounds nuw %struct.AVStream, ptr %92, i32 0, i32 6
  store i64 0, ptr %93, align 8, !tbaa !56
  %94 = load ptr, ptr %8, align 8, !tbaa !39
  call void @avpriv_set_pts_info(ptr noundef %94, i32 noundef 33, i32 noundef 1, i32 noundef 24)
  store i32 0, ptr %2, align 4
  store i32 1, ptr %10, align 4
  br label %95

95:                                               ; preds = %81, %79, %50, %42
  call void @llvm.lifetime.end.p0(i64 4, ptr %9) #4
  call void @llvm.lifetime.end.p0(i64 8, ptr %8) #4
  call void @llvm.lifetime.end.p0(i64 4, ptr %7) #4
  call void @llvm.lifetime.end.p0(i64 4, ptr %6) #4
  call void @llvm.lifetime.end.p0(i64 8, ptr %5) #4
  call void @llvm.lifetime.end.p0(i64 8, ptr %4) #4
  %96 = load i32, ptr %2, align 4
  ret i32 %96
}