; Function Attrs: nounwind uwtable
define internal range(i32 -2147483648, 1) i32 @hnm_read_header(ptr noundef %0) #1 {
  %2 = getelementptr inbounds nuw i8, ptr %0, i64 24
  %3 = load ptr, ptr %2, align 8, !tbaa !13
  %4 = getelementptr inbounds nuw i8, ptr %0, i64 32
  %5 = load ptr, ptr %4, align 8, !tbaa !28
  %6 = tail call i64 @avio_skip(ptr noundef %5, i64 noundef 8) #3
  %7 = tail call i32 @avio_rl16(ptr noundef %5) #3
  %8 = tail call i32 @avio_rl16(ptr noundef %5) #3
  %9 = tail call i32 @avio_rl32(ptr noundef %5) #3
  %10 = tail call i32 @avio_rl32(ptr noundef %5) #3
  store i32 %10, ptr %3, align 4, !tbaa !29
  %11 = tail call i64 @avio_skip(ptr noundef %5, i64 noundef 44) #3
  %12 = add i32 %7, -641
  %or.cond = icmp ult i32 %12, -385
  %13 = add i32 %8, -481
  %14 = icmp ult i32 %13, -331
  %or.cond5 = select i1 %or.cond, i1 true, i1 %14
  br i1 %or.cond5, label %15, label %16

15:                                               ; preds = %1
  tail call void (ptr, i32, ptr, ...) @av_log(ptr noundef nonnull %0, i32 noundef 16, ptr noundef nonnull @.str.2, i32 noundef %7, i32 noundef %8) #3
  br label %34

16:                                               ; preds = %1
  %17 = tail call ptr @avformat_new_stream(ptr noundef nonnull %0, ptr noundef null) #3
  %.not = icmp eq ptr %17, null
  br i1 %.not, label %34, label %18

18:                                               ; preds = %16
  %19 = getelementptr inbounds nuw i8, ptr %17, i64 16
  %20 = load ptr, ptr %19, align 8, !tbaa !31
  store i32 0, ptr %20, align 8, !tbaa !38
  %21 = getelementptr inbounds nuw i8, ptr %20, i64 4
  store i32 172, ptr %21, align 4, !tbaa !41
  %22 = getelementptr inbounds nuw i8, ptr %20, i64 8
  store i32 0, ptr %22, align 8, !tbaa !42
  %23 = getelementptr inbounds nuw i8, ptr %20, i64 72
  store i32 %7, ptr %23, align 8, !tbaa !43
  %24 = getelementptr inbounds nuw i8, ptr %20, i64 76
  store i32 %8, ptr %24, align 4, !tbaa !44
  %25 = tail call i32 @ff_alloc_extradata(ptr noundef nonnull %20, i32 noundef 1) #3
  %26 = icmp slt i32 %25, 0
  br i1 %26, label %34, label %27

27:                                               ; preds = %18
  %28 = icmp eq i32 %7, 640
  %29 = select i1 %28, i8 74, i8 64
  %30 = load ptr, ptr %19, align 8, !tbaa !31
  %31 = getelementptr inbounds nuw i8, ptr %30, i64 16
  %32 = load ptr, ptr %31, align 8, !tbaa !45
  store i8 %29, ptr %32, align 1, !tbaa !12
  %33 = getelementptr inbounds nuw i8, ptr %17, i64 40
  store i64 0, ptr %33, align 8, !tbaa !46
  tail call void @avpriv_set_pts_info(ptr noundef nonnull %17, i32 noundef 33, i32 noundef 1, i32 noundef 24) #3
  br label %34

34:                                               ; preds = %18, %16, %27, %15
  %.0 = phi i32 [ -1094995529, %15 ], [ 0, %27 ], [ -12, %16 ], [ %25, %18 ]
  ret i32 %.0
}